; ModuleID = '62/1653.c'
source_filename = "62/1653.c"
target datalayout = "e-m:e-p270:32:32-p271:32:32-p272:64:64-i64:64-f80:128-n8:16:32:64-S128"
target triple = "x86_64-pc-linux-gnu"

@.str = private unnamed_addr constant [3 x i8] c"%c\00", align 1
@.str.1 = private unnamed_addr constant [2 x i8] c" \00", align 1

; Function Attrs: noinline nounwind uwtable
define dso_local i32 @main() #0 {
  %1 = alloca i32, align 4
  %2 = alloca [200 x i8], align 16
  %3 = alloca i32, align 4
  %4 = alloca i32, align 4
  store i32 0, i32* %1, align 4
  %5 = getelementptr inbounds [200 x i8], [200 x i8]* %2, i64 0, i64 0
  %6 = call i32 (i8*, ...) bitcast (i32 (...)* @gets to i32 (i8*, ...)*)(i8* %5)
  %7 = getelementptr inbounds [200 x i8], [200 x i8]* %2, i64 0, i64 0
  %8 = call i64 @strlen(i8* %7) #3
  %9 = trunc i64 %8 to i32
  store i32 %9, i32* %4, align 4
  store i32 0, i32* %3, align 4
  br label %10

10:                                               ; preds = %48, %0
  %11 = load i32, i32* %3, align 4
  %12 = load i32, i32* %4, align 4
  %13 = icmp slt i32 %11, %12
  br i1 %13, label %14, label %51

14:                                               ; preds = %10
  %15 = load i32, i32* %3, align 4
  %16 = sext i32 %15 to i64
  %17 = getelementptr inbounds [200 x i8], [200 x i8]* %2, i64 0, i64 %16
  %18 = load i8, i8* %17, align 1
  %19 = sext i8 %18 to i32
  %20 = icmp ne i32 %19, 32
  br i1 %20, label %21, label %28

21:                                               ; preds = %14
  %22 = load i32, i32* %3, align 4
  %23 = sext i32 %22 to i64
  %24 = getelementptr inbounds [200 x i8], [200 x i8]* %2, i64 0, i64 %23
  %25 = load i8, i8* %24, align 1
  %26 = sext i8 %25 to i32
  %27 = call i32 (i8*, ...) @printf(i8* getelementptr inbounds ([3 x i8], [3 x i8]* @.str, i64 0, i64 0), i32 %26)
  br label %47

28:                                               ; preds = %14
  %29 = load i32, i32* %3, align 4
  %30 = sext i32 %29 to i64
  %31 = getelementptr inbounds [200 x i8], [200 x i8]* %2, i64 0, i64 %30
  %32 = load i8, i8* %31, align 1
  %33 = sext i8 %32 to i32
  %34 = icmp eq i32 %33, 32
  br i1 %34, label %35, label %44

35:                                               ; preds = %28
  %36 = load i32, i32* %3, align 4
  %37 = add nsw i32 %36, 1
  %38 = sext i32 %37 to i64
  %39 = getelementptr inbounds [200 x i8], [200 x i8]* %2, i64 0, i64 %38
  %40 = load i8, i8* %39, align 1
  %41 = sext i8 %40 to i32
  %42 = icmp eq i32 %41, 32
  br i1 %42, label %43, label %44

43:                                               ; preds = %35
  br label %48

44:                                               ; preds = %35, %28
  %45 = call i32 (i8*, ...) @printf(i8* getelementptr inbounds ([2 x i8], [2 x i8]* @.str.1, i64 0, i64 0))
  br label %46

46:                                               ; preds = %44
  br label %47

47:                                               ; preds = %46, %21
  br label %48

48:                                               ; preds = %47, %43
  %49 = load i32, i32* %3, align 4
  %50 = add nsw i32 %49, 1
  store i32 %50, i32* %3, align 4
  br label %10

51:                                               ; preds = %10
  ret i32 0
}

declare dso_local i32 @gets(...) #1

; Function Attrs: nounwind readonly
declare dso_local i64 @strlen(i8*) #2

declare dso_local i32 @printf(i8*, ...) #1


!llvm.module.flags = !{!0}
!llvm.ident = !{!1}

!0 = !{i32 1, !"wchar_size", i32 4}
!1 = !{!"clang version 10.0.0-4ubuntu1 "}
